target datalayout = "e-m:e-p270:32:32-p271:32:32-p272:64:64-i64:64-i128:128-f80:128-n8:16:32:64-S128"
target triple = "x86_64-pc-linux-gnu"

; Function Attrs: nounwind uwtable
define hidden i64 @mbedtls_mpi_core_clz(i64 noundef %0) #0 {
  %2 = alloca i64, align 8
  store i64 %0, ptr %2, align 8, !tbaa !3
  %3 = load i64, ptr %2, align 8, !tbaa !3
  %4 = call i64 @llvm.ctlz.i64(i64 %3, i1 true)
  %5 = trunc i64 %4 to i32
  %6 = sext i32 %5 to i64
  ret i64 %6
}

; Function Attrs: nounwind uwtable
define hidden i64 @mbedtls_mpi_core_bitlen(ptr noundef %0, i64 noundef %1) #0 {
  %3 = alloca i64, align 8
  %4 = alloca ptr, align 8
  %5 = alloca i64, align 8
  %6 = alloca i32, align 4
  %7 = alloca i64, align 8
  %8 = alloca i32, align 4
  store ptr %0, ptr %4, align 8, !tbaa !7
  store i64 %1, ptr %5, align 8, !tbaa !3
  call void @llvm.lifetime.start.p0(i64 4, ptr %6) #7
  call void @llvm.lifetime.start.p0(i64 8, ptr %7) #7
  %9 = load i64, ptr %5, align 8, !tbaa !3
  %10 = trunc i64 %9 to i32
  %11 = sub nsw i32 %10, 1
  store i32 %11, ptr %6, align 4, !tbaa !10
  br label %12

12:                                               ; preds = %36, %2
  %13 = load i32, ptr %6, align 4, !tbaa !10
  %14 = icmp sge i32 %13, 0
  br i1 %14, label %15, label %39

15:                                               ; preds = %12
  %16 = load ptr, ptr %4, align 8, !tbaa !7
  %17 = load i32, ptr %6, align 4, !tbaa !10
  %18 = sext i32 %17 to i64
  %19 = getelementptr inbounds i64, ptr %16, i64 %18
  %20 = load i64, ptr %19, align 8, !tbaa !3
  %21 = icmp ne i64 %20, 0
  br i1 %21, label %22, label %35

22:                                               ; preds = %15
  %23 = load ptr, ptr %4, align 8, !tbaa !7
  %24 = load i32, ptr %6, align 4, !tbaa !10
  %25 = sext i32 %24 to i64
  %26 = getelementptr inbounds i64, ptr %23, i64 %25
  %27 = load i64, ptr %26, align 8, !tbaa !3
  %28 = call i64 @mbedtls_mpi_core_clz(i64 noundef %27)
  %29 = sub i64 64, %28
  store i64 %29, ptr %7, align 8, !tbaa !3
  %30 = load i32, ptr %6, align 4, !tbaa !10
  %31 = sext i32 %30 to i64
  %32 = mul i64 %31, 64
  %33 = load i64, ptr %7, align 8, !tbaa !3
  %34 = add i64 %32, %33
  store i64 %34, ptr %3, align 8
  store i32 1, ptr %8, align 4
  br label %40

35:                                               ; preds = %15
  br label %36

36:                                               ; preds = %35
  %37 = load i32, ptr %6, align 4, !tbaa !10
  %38 = add nsw i32 %37, -1
  store i32 %38, ptr %6, align 4, !tbaa !10
  br label %12, !llvm.loop !12

39:                                               ; preds = %12
  store i64 0, ptr %3, align 8
  store i32 1, ptr %8, align 4
  br label %40

40:                                               ; preds = %39, %22
  call void @llvm.lifetime.end.p0(i64 8, ptr %7) #7
  call void @llvm.lifetime.end.p0(i64 4, ptr %6) #7
  %41 = load i64, ptr %3, align 8
  ret i64 %41
}