; Function Attrs: nofree norecurse nosync nounwind memory(argmem: read) uwtable
define hidden range(i64 0, 137438953409) i64 @mbedtls_mpi_core_bitlen(ptr noundef readonly captures(none) %0, i64 noundef %1) local_unnamed_addr #2 {
  %3 = and i64 %1, 4294967295
  br label %4

4:                                                ; preds = %7, %2
  %indvars.iv = phi i64 [ %8, %7 ], [ %3, %2 ]
  %5 = trunc nuw i64 %indvars.iv to i32
  %6 = icmp sgt i32 %5, 0
  br i1 %6, label %7, label %.loopexit

7:                                                ; preds = %4
  %8 = add nsw i64 %indvars.iv, -1
  %9 = getelementptr inbounds nuw i64, ptr %0, i64 %8
  %10 = load i64, ptr %9, align 8, !tbaa !3
  %.not = icmp eq i64 %10, 0
  br i1 %.not, label %4, label %11, !llvm.loop !7

11:                                               ; preds = %7
  %12 = tail call range(i64 0, 64) i64 @llvm.ctlz.i64(i64 %10, i1 true)
  %13 = shl nuw nsw i64 %8, 6
  %reass.sub = add nuw nsw i64 %13, 64
  %14 = sub nuw nsw i64 %reass.sub, %12
  br label %.loopexit

.loopexit:                                        ; preds = %4, %11
  %.0 = phi i64 [ %14, %11 ], [ 0, %4 ]
  ret i64 %.0
}